target datalayout = "e-m:e-p270:32:32-p271:32:32-p272:64:64-i64:64-i128:128-f80:128-n8:16:32:64-S128"
target triple = "x86_64-pc-linux-gnu"

%struct.crypto_ex_data_st = type { ptr }
%struct.ssl_st = type { i32, i16, i16, ptr, ptr, ptr, ptr, ptr, i32, i32, ptr, ptr, i32, i32, ptr, ptr, ptr, ptr, ptr, ptr, ptr, ptr, i32, i32, [32 x i8], ptr, ptr, ptr, ptr, ptr, ptr, ptr, i64, %struct.crypto_ex_data_st, ptr, i32, i32, i32, i32, i16, ptr, i32, i64, ptr, ptr, ptr, ptr, ptr, ptr, i32, i32, ptr, ptr, i8, i8, i32 }
%struct.ssl3_state_st = type { [8 x i8], [8 x i8], [32 x i8], [32 x i8], i8, i8, %struct.ssl3_buffer_st, %struct.ssl3_buffer_st, %struct.ssl3_record_st, i8, i32, i32, i32, i32, ptr, ptr, %struct.env_md_ctx_st, %struct.env_md_ctx_st, i8, i32, [2 x i8], i32, i8, i8, ptr, ptr, ptr, %struct.anon, [64 x i8], i8, [64 x i8], i8, i32, i32, ptr, i64, ptr, i64, i8, [64 x i8] }
%struct.ssl3_buffer_st = type { ptr, i16, i16, i16 }
%struct.ssl3_record_st = type { i8, i16, ptr }
%struct.env_md_ctx_st = type { ptr, ptr, ptr, ptr }
%struct.anon = type { [64 x i8], i32, [64 x i8], i32, i64, i32, ptr, i32, i32, %union.anon, %union.anon.0, i8, i32, ptr, ptr, i64, ptr, i8, i8, i8, i8, i32, i8, ptr, i64, i8, ptr, i8, i8, i8, %struct.ssl_ecdh_ctx_st, ptr, i16 }
%union.anon = type { i32 }
%union.anon.0 = type { i16 }
%struct.ssl_ecdh_ctx_st = type { ptr, ptr }

; Function Attrs: nounwind uwtable
define hidden void @SSL_get0_alpn_selected(ptr noundef %0, ptr noundef %1, ptr noundef %2) #0 {
  %4 = alloca ptr, align 8
  %5 = alloca ptr, align 8
  %6 = alloca ptr, align 8
  store ptr %0, ptr %4, align 8, !tbaa !80
  store ptr %1, ptr %5, align 8, !tbaa !210
  store ptr %2, ptr %6, align 8, !tbaa !220
  %7 = load ptr, ptr %5, align 8, !tbaa !210
  store ptr null, ptr %7, align 8, !tbaa !55
  %8 = load ptr, ptr %4, align 8, !tbaa !80
  %9 = getelementptr inbounds nuw %struct.ssl_st, ptr %8, i32 0, i32 14
  %10 = load ptr, ptr %9, align 8, !tbaa !152
  %11 = icmp ne ptr %10, null
  br i1 %11, label %12, label %19

12:                                               ; preds = %3
  %13 = load ptr, ptr %4, align 8, !tbaa !80
  %14 = getelementptr inbounds nuw %struct.ssl_st, ptr %13, i32 0, i32 14
  %15 = load ptr, ptr %14, align 8, !tbaa !152
  %16 = getelementptr inbounds nuw %struct.ssl3_state_st, ptr %15, i32 0, i32 36
  %17 = load ptr, ptr %16, align 8, !tbaa !229
  %18 = load ptr, ptr %5, align 8, !tbaa !210
  store ptr %17, ptr %18, align 8, !tbaa !55
  br label %19

19:                                               ; preds = %12, %3
  %20 = load ptr, ptr %5, align 8, !tbaa !210
  %21 = load ptr, ptr %20, align 8, !tbaa !55
  %22 = icmp eq ptr %21, null
  br i1 %22, label %23, label %25

23:                                               ; preds = %19
  %24 = load ptr, ptr %6, align 8, !tbaa !220
  store i32 0, ptr %24, align 4, !tbaa !61
  br label %33

25:                                               ; preds = %19
  %26 = load ptr, ptr %4, align 8, !tbaa !80
  %27 = getelementptr inbounds nuw %struct.ssl_st, ptr %26, i32 0, i32 14
  %28 = load ptr, ptr %27, align 8, !tbaa !152
  %29 = getelementptr inbounds nuw %struct.ssl3_state_st, ptr %28, i32 0, i32 37
  %30 = load i64, ptr %29, align 8, !tbaa !230
  %31 = trunc i64 %30 to i32
  %32 = load ptr, ptr %6, align 8, !tbaa !220
  store i32 %31, ptr %32, align 4, !tbaa !61
  br label %33

33:                                               ; preds = %25, %23
  ret void
}