; Function Attrs: mustprogress nofree norecurse nosync nounwind willreturn memory(read, argmem: readwrite, inaccessiblemem: none) uwtable
define hidden void @SSL_get0_alpn_selected(ptr noundef readonly captures(none) %0, ptr noundef writeonly captures(none) initializes((0, 8)) %1, ptr noundef writeonly captures(none) initializes((0, 4)) %2) local_unnamed_addr #4 {
  store ptr null, ptr %1, align 8, !tbaa !186
  %4 = getelementptr inbounds nuw i8, ptr %0, i64 80
  %5 = load ptr, ptr %4, align 8, !tbaa !136
  %.not = icmp eq ptr %5, null
  br i1 %.not, label %.thread, label %6

6:                                                ; preds = %3
  %7 = getelementptr inbounds nuw i8, ptr %5, i64 752
  %8 = load ptr, ptr %7, align 8, !tbaa !206
  store ptr %8, ptr %1, align 8, !tbaa !186
  %9 = icmp eq ptr %8, null
  br i1 %9, label %.thread, label %10

10:                                               ; preds = %6
  %11 = getelementptr inbounds nuw i8, ptr %5, i64 760
  %12 = load i64, ptr %11, align 8, !tbaa !207
  %13 = trunc i64 %12 to i32
  br label %.thread

.thread:                                          ; preds = %3, %6, %10
  %storemerge = phi i32 [ %13, %10 ], [ 0, %6 ], [ 0, %3 ]
  store i32 %storemerge, ptr %2, align 4, !tbaa !161
  ret void
}